Certificate:
    Data:
        Version: 3 (0x2)
        Serial Number:
            66:af:0b:f3:1a:a5:81:f0:12:82:e6:14:8a:ad:3e:47:87:1e:a1:46
        Signature Algorithm: sha256WithRSAEncryption
        Issuer: C = US, ST = WA, O = Example Corp, OU = Engineering, CN = server
        Validity
            Not Before: Oct 26 06:13:43 2022 GMT
            Not After : Oct 26 06:13:43 2023 GMT
        Subject: C = US, ST = WA, O = Example Corp, OU = Engineering, CN = server
        Subject Public Key Info:
            Public Key Algorithm: rsaEncryption
                RSA Public-Key: (4096 bit)
                Modulus:
                    00:ca:02:1b:18:7d:5b:cf:8d:1f:dc:68:0c:9d:17:
                    04:3b:ff:24:c6:64:2d:8e:11:f8:9f:c7:a5:d5:58:
                    e6:ec:11:7a:c2:c2:bc:18:48:54:56:b4:bd:7e:02:
                    60:56:4e:7a:71:3b:9b:da:f8:da:a1:e4:91:ac:60:
                    79:64:5f:9b:85:e5:70:8a:ce:45:34:9f:b0:70:17:
                    46:34:6c:3b:d2:ba:31:14:19:62:c2:fe:d8:18:be:
                    9e:12:06:51:c3:18:9f:93:f9:33:0d:a6:70:af:99:
                    d9:e0:5d:4c:0b:9b:19:35:5a:32:84:cd:1c:4a:27:
                    41:1a:0b:21:4c:7a:ef:32:27:88:0d:36:aa:90:2b:
                    6d:e2:1e:cb:76:ea:5b:95:4d:10:a0:ae:0f:15:a2:
                    a8:5b:d5:ff:13:46:36:41:3f:af:9c:95:22:f4:eb:
                    fe:fd:10:f0:6e:b4:66:15:ac:ed:e9:a1:ad:6e:32:
                    a4:67:75:78:f8:9f:c0:1d:88:41:c1:27:8e:f3:23:
                    e1:46:a8:69:c1:15:56:97:15:a1:09:2f:cb:83:15:
                    61:85:e4:a1:e6:d0:4e:e7:36:84:66:dd:13:38:02:
                    59:50:c6:44:45:a3:5a:f3:68:77:fa:66:6a:13:b1:
                    5a:f8:c8:bc:63:59:0c:29:43:24:bd:5a:ee:d1:c4:
                    08:7c:b8:86:d7:4c:c6:c4:ef:58:f8:bb:1b:ef:84:
                    c3:41:78:4f:4c:44:69:8f:ac:c2:bd:4e:60:64:e3:
                    d7:c9:38:4b:a2:d4:5f:94:47:01:3b:4a:0e:e1:6d:
                    c4:00:11:ec:4b:74:b8:99:25:5b:ea:ba:34:80:fc:
                    9b:93:19:4a:76:02:87:d4:72:7c:8a:75:45:88:e2:
                    8c:07:72:17:3f:33:b9:e6:49:63:25:9a:8b:d0:d2:
                    78:30:08:58:53:f5:34:97:96:73:68:34:20:67:d7:
                    77:c9:7a:87:03:7f:d1:d9:2a:83:29:34:f0:73:48:
                    4b:fe:71:88:67:93:e7:00:8c:b5:eb:ed:a1:59:0b:
                    ca:a5:53:61:f2:2d:f2:48:a7:1e:23:b9:49:51:32:
                    af:90:0b:2c:72:83:32:c5:63:88:6f:a0:89:5f:09:
                    49:e2:be:20:fb:88:ff:21:ec:73:65:10:c1:df:16:
                    95:e7:11:fc:77:21:05:ac:87:d1:c4:56:7c:78:61:
                    6e:4f:fa:a2:28:6c:f5:c2:e5:1b:69:a4:65:b4:71:
                    2b:b6:5f:de:c5:48:a7:4e:68:40:52:63:4a:bc:e0:
                    21:15:aa:12:81:86:ca:e4:eb:65:29:f8:78:ca:6d:
                    55:de:42:54:d4:6b:40:eb:75:61:21:c2:53:f9:09:
                    03:30:b1
                Exponent: 65537 (0x10001)
        X509v3 extensions:
            X509v3 Subject Alternative Name: 
                DNS:server
    Signature Algorithm: sha256WithRSAEncryption
         00:82:22:b7:45:e3:8a:d6:4d:59:54:d9:5c:e4:c0:06:2d:ec:
         c6:f5:17:f9:1a:e1:1a:56:2b:f4:fc:d5:55:ed:c0:ca:0c:05:
         ec:bf:7f:dc:35:c4:ae:3b:a0:cf:52:7c:f8:ac:9e:90:52:92:
         49:a1:74:1e:10:6a:d7:8d:31:32:2b:97:f7:eb:ac:7a:aa:39:
         46:8d:2a:7a:22:6d:d5:15:4d:92:46:7a:bf:f8:ea:fd:07:b1:
         66:23:d4:c0:1c:66:e5:d1:20:30:83:05:24:46:6f:0f:bc:ce:
         57:06:46:4e:e9:bc:1c:21:d6:66:aa:99:88:5c:00:9a:f9:e6:
         cc:97:f9:be:b4:75:c9:ad:fc:e2:6c:83:84:e8:b3:de:c4:f1:
         e3:c9:76:1d:96:cc:11:38:0d:3d:dd:99:02:f5:43:19:13:25:
         d9:9d:dc:3c:46:97:04:3a:03:12:3c:68:d6:a6:49:42:ff:d1:
         2f:f9:43:7a:a5:72:de:94:c6:05:7f:0e:e5:32:3f:09:4b:f6:
         b6:11:35:b6:9e:f9:5b:31:15:e9:e5:4b:e6:0a:3d:13:2b:61:
         ae:77:59:de:b4:fe:bc:6d:4d:62:eb:37:36:95:1a:c6:c4:2b:
         b3:06:71:c7:e8:3c:4b:c8:f7:86:04:d7:15:66:14:2c:ec:02:
         f0:71:9f:16:cb:ec:62:06:7e:ea:29:cb:64:e2:be:04:e3:6d:
         5b:54:45:99:50:9f:8b:f1:1b:1c:0a:be:37:2f:51:4c:7a:76:
         b8:44:af:2d:eb:a6:04:72:f0:5a:b4:ee:bd:fa:de:69:db:d1:
         b7:0d:50:7e:3e:3e:e7:06:1c:66:f7:cf:c3:2a:88:1a:87:b5:
         22:f4:28:bc:14:7e:a1:a6:8c:f5:28:a0:98:2f:ed:9e:1f:d4:
         83:d9:6f:84:36:9e:82:3d:ff:02:88:09:ef:ce:1a:32:5b:de:
         f0:c7:c3:e3:c7:43:0c:e1:c5:15:6e:11:f2:85:7b:9d:de:b1:
         43:89:b9:6e:db:48:27:87:29:ba:f4:9d:89:2b:f7:b0:c9:83:
         81:b3:18:d6:e0:d3:71:e0:a6:68:31:19:57:33:71:89:1f:50:
         a9:60:5d:11:da:8f:de:52:0d:f8:01:f4:37:ce:43:dd:d6:aa:
         de:e3:17:cc:b0:29:ec:f9:27:58:5f:a4:78:30:06:56:1d:83:
         16:01:a6:c8:65:7d:c5:fb:4f:59:39:a1:b9:b3:74:69:a9:0a:
         da:78:fc:bb:5d:35:6f:73:c0:e7:7d:fe:14:0d:e0:81:50:57:
         7c:47:e1:d2:53:01:32:0a:ec:20:d1:d7:95:41:a4:8c:b4:20:
         44:88:ff:b9:e4:83:c2:3d
-----BEGIN CERTIFICATE-----
MIIFUzCCAzugAwIBAgIUZq8L8xqlgfASguYUiq0+R4ceoUYwDQYJKoZIhvcNAQEL
BQAwWDELMAkGA1UEBhMCVVMxCzAJBgNVBAgMAldBMRUwEwYDVQQKDAxFeGFtcGxl
IENvcnAxFDASBgNVBAsMC0VuZ2luZWVyaW5nMQ8wDQYDVQQDDAZzZXJ2ZXIwHhcN
MjIxMDI2MDYxMzQzWhcNMjMxMDI2MDYxMzQzWjBYMQswCQYDVQQGEwJVUzELMAkG
A1UECAwCV0ExFTATBgNVBAoMDEV4YW1wbGUgQ29ycDEUMBIGA1UECwwLRW5naW5l
ZXJpbmcxDzANBgNVBAMMBnNlcnZlcjCCAiIwDQYJKoZIhvcNAQEBBQADggIPADCC
AgoCggIBAMoCGxh9W8+NH9xoDJ0XBDv/JMZkLY4R+J/HpdVY5uwResLCvBhIVFa0
vX4CYFZOenE7m9r42qHkkaxgeWRfm4XlcIrORTSfsHAXRjRsO9K6MRQZYsL+2Bi+
nhIGUcMYn5P5Mw2mcK+Z2eBdTAubGTVaMoTNHEonQRoLIUx67zIniA02qpArbeIe
y3bqW5VNEKCuDxWiqFvV/xNGNkE/r5yVIvTr/v0Q8G60ZhWs7emhrW4ypGd1ePif
wB2IQcEnjvMj4UaoacEVVpcVoQkvy4MVYYXkoebQTuc2hGbdEzgCWVDGREWjWvNo
d/pmahOxWvjIvGNZDClDJL1a7tHECHy4htdMxsTvWPi7G++Ew0F4T0xEaY+swr1O
YGTj18k4S6LUX5RHATtKDuFtxAAR7Et0uJklW+q6NID8m5MZSnYCh9RyfIp1RYji
jAdyFz8zueZJYyWai9DSeDAIWFP1NJeWc2g0IGfXd8l6hwN/0dkqgyk08HNIS/5x
iGeT5wCMtevtoVkLyqVTYfIt8kinHiO5SVEyr5ALLHKDMsVjiG+giV8JSeK+IPuI
/yHsc2UQwd8WlecR/HchBayH0cRWfHhhbk/6oihs9cLlG2mkZbRxK7Zf3sVIp05o
QFJjSrzgIRWqEoGGyuTrZSn4eMptVd5CVNRrQOt1YSHCU/kJAzCxAgMBAAGjFTAT
MBEGA1UdEQQKMAiCBnNlcnZlcjANBgkqhkiG9w0BAQsFAAOCAgEAAIIit0XjitZN
WVTZXOTABi3sxvUX+RrhGlYr9PzVVe3AygwF7L9/3DXErjugz1J8+KyekFKSSaF0
HhBq140xMiuX9+useqo5Ro0qeiJt1RVNkkZ6v/jq/QexZiPUwBxm5dEgMIMFJEZv
D7zOVwZGTum8HCHWZqqZiFwAmvnmzJf5vrR1ya384myDhOiz3sTx48l2HZbMETgN
Pd2ZAvVDGRMl2Z3cPEaXBDoDEjxo1qZJQv/RL/lDeqVy3pTGBX8O5TI/CUv2thE1
tp75WzEV6eVL5go9EythrndZ3rT+vG1NYus3NpUaxsQrswZxx+g8S8j3hgTXFWYU
LOwC8HGfFsvsYgZ+6inLZOK+BONtW1RFmVCfi/EbHAq+Ny9RTHp2uESvLeumBHLw
WrTuvfreadvRtw1Qfj4+5wYcZvfPwyqIGoe1IvQovBR+oaaM9SigmC/tnh/Ug9lv
hDaegj3/AogJ784aMlve8MfD48dDDOHFFW4R8oV7nd6xQ4m5bttIJ4cpuvSdiSv3
sMmDgbMY1uDTceCmaDEZVzNxiR9QqWBdEdqP3lIN+AH0N85D3daq3uMXzLAp7Pkn
WF+keDAGVh2DFgGmyGV9xftPWTmhubN0aakK2nj8u101b3PA533+FA3ggVBXfEfh
0lMBMgrsINHXlUGkjLQgRIj/ueSDwj0=
-----END CERTIFICATE-----
